; Function Attrs: mustprogress nofree norecurse nosync nounwind willreturn memory(argmem: read) uwtable
define i32 @ossl_ffc_named_group_get_uid(ptr noundef readonly captures(address_is_null) %0) local_unnamed_addr #3 {
  %2 = icmp eq ptr %0, null
  br i1 %2, label %6, label %3

3:                                                ; preds = %1
  %4 = getelementptr inbounds nuw i8, ptr %0, i64 8
  %5 = load i32, ptr %4, align 8, !tbaa !14
  br label %6

6:                                                ; preds = %1, %3
  %.0 = phi i32 [ %5, %3 ], [ 0, %1 ]
  ret i32 %.0
}